; Function Attrs: nounwind uwtable
define dso_local i32 @range_cmp_bounds(ptr noundef %0, ptr noundef readonly captures(none) %1, ptr noundef readonly captures(none) %2) local_unnamed_addr #0 {
  %4 = getelementptr inbounds nuw i8, ptr %1, i64 8
  %5 = load i8, ptr %4, align 8, !range !7, !noundef !8
  %6 = trunc nuw i8 %5 to i1
  %7 = getelementptr inbounds nuw i8, ptr %2, i64 8
  %8 = load i8, ptr %7, align 8, !range !7, !noundef !8
  %9 = trunc nuw i8 %8 to i1
  br i1 %6, label %10, label %23

10:                                               ; preds = %3
  %11 = getelementptr inbounds nuw i8, ptr %1, i64 10
  %12 = load i8, ptr %11, align 2, !range !7, !noundef !8
  br i1 %9, label %13, label %20

13:                                               ; preds = %10
  %14 = getelementptr inbounds nuw i8, ptr %2, i64 10
  %15 = load i8, ptr %14, align 2, !range !7, !noundef !8
  %16 = icmp eq i8 %12, %15
  br i1 %16, label %64, label %17

17:                                               ; preds = %13
  %18 = trunc nuw i8 %12 to i1
  %19 = select i1 %18, i32 -1, i32 1
  br label %64

20:                                               ; preds = %10
  %21 = trunc nuw i8 %12 to i1
  %22 = select i1 %21, i32 -1, i32 1
  br label %64

23:                                               ; preds = %3
  br i1 %9, label %24, label %29

24:                                               ; preds = %23
  %25 = getelementptr inbounds nuw i8, ptr %2, i64 10
  %26 = load i8, ptr %25, align 2, !range !7, !noundef !8
  %27 = trunc nuw i8 %26 to i1
  %28 = select i1 %27, i32 1, i32 -1
  br label %64

29:                                               ; preds = %23
  %30 = getelementptr inbounds nuw i8, ptr %0, i64 296
  %31 = getelementptr inbounds nuw i8, ptr %0, i64 292
  %32 = load i32, ptr %31, align 4
  %33 = load i64, ptr %1, align 8
  %34 = load i64, ptr %2, align 8
  %35 = tail call i64 @FunctionCall2Coll(ptr noundef nonnull %30, i32 noundef %32, i64 noundef %33, i64 noundef %34) #14
  %36 = trunc i64 %35 to i32
  %37 = icmp eq i32 %36, 0
  br i1 %37, label %38, label %64

38:                                               ; preds = %29
  %39 = getelementptr inbounds nuw i8, ptr %1, i64 9
  %40 = load i8, ptr %39, align 1, !range !7, !noundef !8
  %41 = trunc nuw i8 %40 to i1
  %42 = getelementptr inbounds nuw i8, ptr %2, i64 9
  %43 = load i8, ptr %42, align 1, !range !7, !noundef !8
  %44 = trunc nuw i8 %43 to i1
  br i1 %41, label %58, label %45

45:                                               ; preds = %38
  %46 = getelementptr inbounds nuw i8, ptr %1, i64 10
  %47 = load i8, ptr %46, align 2, !range !7, !noundef !8
  br i1 %44, label %55, label %48

48:                                               ; preds = %45
  %49 = getelementptr inbounds nuw i8, ptr %2, i64 10
  %50 = load i8, ptr %49, align 2, !range !7, !noundef !8
  %51 = icmp eq i8 %47, %50
  br i1 %51, label %64, label %52

52:                                               ; preds = %48
  %53 = trunc nuw i8 %47 to i1
  %54 = select i1 %53, i32 1, i32 -1
  br label %64

55:                                               ; preds = %45
  %56 = trunc nuw i8 %47 to i1
  %57 = select i1 %56, i32 1, i32 -1
  br label %64

58:                                               ; preds = %38
  br i1 %44, label %64, label %59

59:                                               ; preds = %58
  %60 = getelementptr inbounds nuw i8, ptr %2, i64 10
  %61 = load i8, ptr %60, align 2, !range !7, !noundef !8
  %62 = trunc nuw i8 %61 to i1
  %63 = select i1 %62, i32 -1, i32 1
  br label %64

64:                                               ; preds = %29, %58, %48, %13, %59, %55, %52, %24, %20, %17
  %.0 = phi i32 [ %19, %17 ], [ %22, %20 ], [ %28, %24 ], [ %63, %59 ], [ %57, %55 ], [ %54, %52 ], [ 0, %13 ], [ 0, %48 ], [ 0, %58 ], [ %36, %29 ]
  ret i32 %.0
}